target datalayout = "e-m:e-p270:32:32-p271:32:32-p272:64:64-i64:64-i128:128-f80:128-n8:16:32:64-S128"
target triple = "x86_64-pc-linux-gnu"

%"class.std::__cxx11::basic_string" = type { %"struct.std::__cxx11::basic_string<char>::_Alloc_hider", i64, %union.anon }
%"struct.std::__cxx11::basic_string<char>::_Alloc_hider" = type { ptr }
%union.anon = type { i64, [8 x i8] }
%"class.std::allocator" = type { i8 }
%"class.std::__cxx11::basic_stringstream" = type { %"class.std::basic_iostream.base", %"class.std::__cxx11::basic_stringbuf", %"class.std::basic_ios" }
%"class.std::basic_iostream.base" = type { %"class.std::basic_istream.base", %"class.std::basic_ostream.base" }
%"class.std::basic_istream.base" = type { ptr, i64 }
%"class.std::basic_ostream.base" = type { ptr }
%"class.std::__cxx11::basic_stringbuf" = type { %"class.std::basic_streambuf", i32, %"class.std::__cxx11::basic_string" }
%"class.std::basic_streambuf" = type { ptr, ptr, ptr, ptr, ptr, ptr, ptr, %"class.std::locale" }
%"class.std::locale" = type { ptr }
%"class.std::basic_ios" = type { %"class.std::ios_base", ptr, i8, i8, ptr, ptr, ptr, ptr }
%"class.std::ios_base" = type { ptr, i64, i64, i32, i32, i32, ptr, %"struct.std::ios_base::_Words", [8 x %"struct.std::ios_base::_Words"], i32, ptr, %"class.std::locale" }
%"struct.std::ios_base::_Words" = type { ptr, i64 }
%"class.std::fpos" = type { i64, %struct.__mbstate_t }
%struct.__mbstate_t = type { i32, %union.anon.0 }
%union.anon.0 = type { i32 }

@.str.6 = private unnamed_addr constant [11 x i8] c"0123456789\00", align 1

; Function Attrs: mustprogress nounwind uwtable
define linkonce_odr noundef i64 @_ZNKSt4fposI11__mbstate_tEcvlEv(ptr noundef nonnull align 8 dereferenceable(16) %0) #0 comdat align 2 {
  %2 = alloca ptr, align 8
  store ptr %0, ptr %2, align 8
  %3 = load ptr, ptr %2, align 8
  %4 = getelementptr inbounds %"class.std::fpos", ptr %3, i32 0, i32 0
  %5 = load i64, ptr %4, align 8
  ret i64 %5
}

; Function Attrs: mustprogress uwtable
define linkonce_odr noundef zeroext i1 @_ZSteqI11__mbstate_tEbRKSt4fposIT_ES5_(ptr noundef nonnull align 8 dereferenceable(16) %0, ptr noundef nonnull align 8 dereferenceable(16) %1) #1 comdat {
  %3 = alloca ptr, align 8
  %4 = alloca ptr, align 8
  store ptr %0, ptr %3, align 8
  store ptr %1, ptr %4, align 8
  %5 = load ptr, ptr %3, align 8
  %6 = call noundef i64 @_ZNKSt4fposI11__mbstate_tEcvlEv(ptr noundef nonnull align 8 dereferenceable(16) %5)
  %7 = load ptr, ptr %4, align 8
  %8 = call noundef i64 @_ZNKSt4fposI11__mbstate_tEcvlEv(ptr noundef nonnull align 8 dereferenceable(16) %7)
  %9 = icmp eq i64 %6, %8
  ret i1 %9
}

; Function Attrs: mustprogress nounwind uwtable
define linkonce_odr void @_ZNSt4fposI11__mbstate_tEC2El(ptr noundef nonnull align 8 dereferenceable(16) %0, i64 noundef %1) unnamed_addr #0 comdat align 2 {
  %3 = alloca ptr, align 8
  %4 = alloca i64, align 8
  store ptr %0, ptr %3, align 8
  store i64 %1, ptr %4, align 8
  %5 = load ptr, ptr %3, align 8
  %6 = getelementptr inbounds %"class.std::fpos", ptr %5, i32 0, i32 0
  %7 = load i64, ptr %4, align 8
  store i64 %7, ptr %6, align 8
  %8 = getelementptr inbounds %"class.std::fpos", ptr %5, i32 0, i32 1
  call void @llvm.memset.p0.i64(ptr align 8 %8, i8 0, i64 8, i1 false)
  ret void
}

; Function Attrs: mustprogress nounwind uwtable
define linkonce_odr noundef i32 @_ZStorSt13_Ios_OpenmodeS_(i32 noundef %0, i32 noundef %1) #0 comdat {
  %3 = alloca i32, align 4
  %4 = alloca i32, align 4
  store i32 %0, ptr %3, align 4
  store i32 %1, ptr %4, align 4
  %5 = load i32, ptr %3, align 4
  %6 = load i32, ptr %4, align 4
  %7 = or i32 %5, %6
  ret i32 %7
}

; Function Attrs: mustprogress uwtable
define noundef i32 @_ZN2mu9ParserInt5IsValEPKcPiPd(ptr noundef %0, ptr noundef %1, ptr noundef %2) #1 align 2 personality ptr @__gxx_personality_v0 {
  %4 = alloca i32, align 4
  %5 = alloca ptr, align 8
  %6 = alloca ptr, align 8
  %7 = alloca ptr, align 8
  %8 = alloca %"class.std::__cxx11::basic_string", align 8
  %9 = alloca %"class.std::allocator", align 1
  %10 = alloca ptr, align 8
  %11 = alloca i32, align 4
  %12 = alloca i64, align 8
  %13 = alloca i32, align 4
  %14 = alloca %"class.std::__cxx11::basic_stringstream", align 8
  %15 = alloca %"class.std::__cxx11::basic_string", align 8
  %16 = alloca i32, align 4
  %17 = alloca %"class.std::fpos", align 8
  %18 = alloca %"class.std::fpos", align 8
  %19 = alloca %"class.std::__cxx11::basic_string", align 8
  %20 = alloca %"class.std::fpos", align 8
  store ptr %0, ptr %5, align 8
  store ptr %1, ptr %6, align 8
  store ptr %2, ptr %7, align 8
  %21 = load ptr, ptr %5, align 8
  call void @_ZNSaIcEC1Ev(ptr noundef nonnull align 1 dereferenceable(1) %9) #5
  invoke void @_ZNSt7__cxx1112basic_stringIcSt11char_traitsIcESaIcEEC1EPKcRKS3_(ptr noundef nonnull align 8 dereferenceable(32) %8, ptr noundef %21, ptr noundef nonnull align 1 dereferenceable(1) %9)
          to label %22 unwind label %27

22:                                               ; preds = %3
  call void @_ZNSaIcED1Ev(ptr noundef nonnull align 1 dereferenceable(1) %9) #5
  %23 = call noundef i64 @_ZNKSt7__cxx1112basic_stringIcSt11char_traitsIcESaIcEE17find_first_not_ofEPKcm(ptr noundef nonnull align 8 dereferenceable(32) %8, ptr noundef @.str.6, i64 noundef 0) #5
  store i64 %23, ptr %12, align 8
  %24 = load i64, ptr %12, align 8
  %25 = icmp eq i64 %24, -1
  br i1 %25, label %26, label %31

26:                                               ; preds = %22
  store i32 0, ptr %4, align 4
  store i32 1, ptr %13, align 4
  br label %96

27:                                               ; preds = %3
  %28 = landingpad { ptr, i32 }
          cleanup
  %29 = extractvalue { ptr, i32 } %28, 0
  store ptr %29, ptr %10, align 8
  %30 = extractvalue { ptr, i32 } %28, 1
  store i32 %30, ptr %11, align 4
  call void @_ZNSaIcED1Ev(ptr noundef nonnull align 1 dereferenceable(1) %9) #5
  br label %99

31:                                               ; preds = %22
  %32 = load i64, ptr %12, align 8
  invoke void @_ZNKSt7__cxx1112basic_stringIcSt11char_traitsIcESaIcEE6substrEmm(ptr dead_on_unwind writable sret(%"class.std::__cxx11::basic_string") align 8 %15, ptr noundef nonnull align 8 dereferenceable(32) %8, i64 noundef 0, i64 noundef %32)
          to label %33 unwind label %46

33:                                               ; preds = %31
  %34 = invoke noundef i32 @_ZStorSt13_Ios_OpenmodeS_(i32 noundef 16, i32 noundef 8)
          to label %35 unwind label %50

35:                                               ; preds = %33
  invoke void @_ZNSt7__cxx1118basic_stringstreamIcSt11char_traitsIcESaIcEEC1ERKNS_12basic_stringIcS2_S3_EESt13_Ios_Openmode(ptr noundef nonnull align 8 dereferenceable(128) %14, ptr noundef nonnull align 8 dereferenceable(32) %15, i32 noundef %34)
          to label %36 unwind label %50

36:                                               ; preds = %35
  call void @_ZNSt7__cxx1112basic_stringIcSt11char_traitsIcESaIcEED1Ev(ptr noundef nonnull align 8 dereferenceable(32) %15) #5
  store i32 0, ptr %16, align 4
  %37 = invoke noundef nonnull align 8 dereferenceable(16) ptr @_ZNSirsERi(ptr noundef nonnull align 8 dereferenceable(16) %14, ptr noundef nonnull align 4 dereferenceable(4) %16)
          to label %38 unwind label %54

38:                                               ; preds = %36
  %39 = load ptr, ptr %14, align 8
  %40 = getelementptr i8, ptr %39, i64 -24
  %41 = load i64, ptr %40, align 8
  %42 = getelementptr inbounds i8, ptr %14, i64 %41
  %43 = invoke noundef zeroext i1 @_ZNKSt9basic_iosIcSt11char_traitsIcEE4failEv(ptr noundef nonnull align 8 dereferenceable(264) %42)
          to label %44 unwind label %54

44:                                               ; preds = %38
  br i1 %43, label %45, label %58

45:                                               ; preds = %44
  store i32 0, ptr %4, align 4
  store i32 1, ptr %13, align 4
  br label %94

46:                                               ; preds = %31
  %47 = landingpad { ptr, i32 }
          cleanup
  %48 = extractvalue { ptr, i32 } %47, 0
  store ptr %48, ptr %10, align 8
  %49 = extractvalue { ptr, i32 } %47, 1
  store i32 %49, ptr %11, align 4
  br label %98

50:                                               ; preds = %35, %33
  %51 = landingpad { ptr, i32 }
          cleanup
  %52 = extractvalue { ptr, i32 } %51, 0
  store ptr %52, ptr %10, align 8
  %53 = extractvalue { ptr, i32 } %51, 1
  store i32 %53, ptr %11, align 4
  call void @_ZNSt7__cxx1112basic_stringIcSt11char_traitsIcESaIcEED1Ev(ptr noundef nonnull align 8 dereferenceable(32) %15) #5
  br label %98

54:                                               ; preds = %84, %80, %79, %71, %60, %58, %38, %36
  %55 = landingpad { ptr, i32 }
          cleanup
  %56 = extractvalue { ptr, i32 } %55, 0
  store ptr %56, ptr %10, align 8
  %57 = extractvalue { ptr, i32 } %55, 1
  store i32 %57, ptr %11, align 4
  br label %95

58:                                               ; preds = %44
  %59 = invoke { i64, i64 } @_ZNSi5tellgEv(ptr noundef nonnull align 8 dereferenceable(16) %14)
          to label %60 unwind label %54

60:                                               ; preds = %58
  %61 = getelementptr inbounds { i64, i64 }, ptr %17, i32 0, i32 0
  %62 = extractvalue { i64, i64 } %59, 0
  store i64 %62, ptr %61, align 8
  %63 = getelementptr inbounds { i64, i64 }, ptr %17, i32 0, i32 1
  %64 = extractvalue { i64, i64 } %59, 1
  store i64 %64, ptr %63, align 8
  %65 = load ptr, ptr %14, align 8
  %66 = getelementptr i8, ptr %65, i64 -24
  %67 = load i64, ptr %66, align 8
  %68 = getelementptr inbounds i8, ptr %14, i64 %67
  %69 = invoke noundef zeroext i1 @_ZNKSt9basic_iosIcSt11char_traitsIcEE4failEv(ptr noundef nonnull align 8 dereferenceable(264) %68)
          to label %70 unwind label %54

70:                                               ; preds = %60
  br i1 %69, label %71, label %79

71:                                               ; preds = %70
  invoke void @_ZNKSt7__cxx1118basic_stringstreamIcSt11char_traitsIcESaIcEE3strEv(ptr dead_on_unwind writable sret(%"class.std::__cxx11::basic_string") align 8 %19, ptr noundef nonnull align 8 dereferenceable(128) %14)
          to label %72 unwind label %54

72:                                               ; preds = %71
  %73 = call noundef i64 @_ZNKSt7__cxx1112basic_stringIcSt11char_traitsIcESaIcEE6lengthEv(ptr noundef nonnull align 8 dereferenceable(32) %19) #5
  invoke void @_ZNSt4fposI11__mbstate_tEC2El(ptr noundef nonnull align 8 dereferenceable(16) %18, i64 noundef %73)
          to label %74 unwind label %75

74:                                               ; preds = %72
  call void @llvm.memcpy.p0.p0.i64(ptr align 8 %17, ptr align 8 %18, i64 16, i1 false)
  call void @_ZNSt7__cxx1112basic_stringIcSt11char_traitsIcESaIcEED1Ev(ptr noundef nonnull align 8 dereferenceable(32) %19) #5
  br label %79

75:                                               ; preds = %72
  %76 = landingpad { ptr, i32 }
          cleanup
  %77 = extractvalue { ptr, i32 } %76, 0
  store ptr %77, ptr %10, align 8
  %78 = extractvalue { ptr, i32 } %76, 1
  store i32 %78, ptr %11, align 4
  call void @_ZNSt7__cxx1112basic_stringIcSt11char_traitsIcESaIcEED1Ev(ptr noundef nonnull align 8 dereferenceable(32) %19) #5
  br label %95

79:                                               ; preds = %74, %70
  invoke void @_ZNSt4fposI11__mbstate_tEC2El(ptr noundef nonnull align 8 dereferenceable(16) %20, i64 noundef -1)
          to label %80 unwind label %54

80:                                               ; preds = %79
  %81 = invoke noundef zeroext i1 @_ZSteqI11__mbstate_tEbRKSt4fposIT_ES5_(ptr noundef nonnull align 8 dereferenceable(16) %17, ptr noundef nonnull align 8 dereferenceable(16) %20)
          to label %82 unwind label %54

82:                                               ; preds = %80
  br i1 %81, label %83, label %84

83:                                               ; preds = %82
  store i32 0, ptr %4, align 4
  store i32 1, ptr %13, align 4
  br label %94

84:                                               ; preds = %82
  %85 = invoke noundef i64 @_ZNKSt4fposI11__mbstate_tEcvlEv(ptr noundef nonnull align 8 dereferenceable(16) %17)
          to label %86 unwind label %54

86:                                               ; preds = %84
  %87 = trunc i64 %85 to i32
  %88 = load ptr, ptr %6, align 8
  %89 = load i32, ptr %88, align 4
  %90 = add nsw i32 %89, %87
  store i32 %90, ptr %88, align 4
  %91 = load i32, ptr %16, align 4
  %92 = sitofp i32 %91 to double
  %93 = load ptr, ptr %7, align 8
  store double %92, ptr %93, align 8
  store i32 1, ptr %4, align 4
  store i32 1, ptr %13, align 4
  br label %94

94:                                               ; preds = %86, %83, %45
  call void @_ZNSt7__cxx1118basic_stringstreamIcSt11char_traitsIcESaIcEED1Ev(ptr noundef nonnull align 8 dereferenceable(128) %14) #5
  br label %96

95:                                               ; preds = %75, %54
  call void @_ZNSt7__cxx1118basic_stringstreamIcSt11char_traitsIcESaIcEED1Ev(ptr noundef nonnull align 8 dereferenceable(128) %14) #5
  br label %98

96:                                               ; preds = %94, %26
  call void @_ZNSt7__cxx1112basic_stringIcSt11char_traitsIcESaIcEED1Ev(ptr noundef nonnull align 8 dereferenceable(32) %8) #5
  %97 = load i32, ptr %4, align 4
  ret i32 %97

98:                                               ; preds = %95, %50, %46
  call void @_ZNSt7__cxx1112basic_stringIcSt11char_traitsIcESaIcEED1Ev(ptr noundef nonnull align 8 dereferenceable(32) %8) #5
  br label %99

99:                                               ; preds = %98, %27
  %100 = load ptr, ptr %10, align 8
  %101 = load i32, ptr %11, align 4
  %102 = insertvalue { ptr, i32 } poison, ptr %100, 0
  %103 = insertvalue { ptr, i32 } %102, i32 %101, 1
  resume { ptr, i32 } %103
}