; Function Attrs: mustprogress uwtable
define noundef i32 @_ZN2mu9ParserInt5IsValEPKcPiPd(ptr noundef %0, ptr nocapture noundef %1, ptr nocapture noundef writeonly %2) #1 align 2 personality ptr @__gxx_personality_v0 {
  %4 = alloca %"class.std::__cxx11::basic_string", align 8
  %5 = alloca %"class.std::allocator", align 1
  %6 = alloca %"class.std::__cxx11::basic_stringstream", align 8
  %7 = alloca %"class.std::__cxx11::basic_string", align 8
  %8 = alloca i32, align 4
  %9 = alloca %"class.std::__cxx11::basic_string", align 8
  call void @_ZNSaIcEC1Ev(ptr noundef nonnull align 1 dereferenceable(1) %5) #12
  invoke void @_ZNSt7__cxx1112basic_stringIcSt11char_traitsIcESaIcEEC1EPKcRKS3_(ptr noundef nonnull align 8 dereferenceable(32) %4, ptr noundef %0, ptr noundef nonnull align 1 dereferenceable(1) %5)
          to label %10 unwind label %13

10:                                               ; preds = %3
  call void @_ZNSaIcED1Ev(ptr noundef nonnull align 1 dereferenceable(1) %5) #12
  %11 = call noundef i64 @_ZNKSt7__cxx1112basic_stringIcSt11char_traitsIcESaIcEE17find_first_not_ofEPKcm(ptr noundef nonnull align 8 dereferenceable(32) %4, ptr noundef nonnull @.str.6, i64 noundef 0) #12
  %12 = icmp eq i64 %11, -1
  br i1 %12, label %54, label %15

13:                                               ; preds = %3
  %14 = landingpad { ptr, i32 }
          cleanup
  call void @_ZNSaIcED1Ev(ptr noundef nonnull align 1 dereferenceable(1) %5) #12
  br label %56

15:                                               ; preds = %10
  invoke void @_ZNKSt7__cxx1112basic_stringIcSt11char_traitsIcESaIcEE6substrEmm(ptr dead_on_unwind nonnull writable sret(%"class.std::__cxx11::basic_string") align 8 %7, ptr noundef nonnull align 8 dereferenceable(32) %4, i64 noundef 0, i64 noundef %11)
          to label %16 unwind label %26

16:                                               ; preds = %15
  invoke void @_ZNSt7__cxx1118basic_stringstreamIcSt11char_traitsIcESaIcEEC1ERKNS_12basic_stringIcS2_S3_EESt13_Ios_Openmode(ptr noundef nonnull align 8 dereferenceable(128) %6, ptr noundef nonnull align 8 dereferenceable(32) %7, i32 noundef 24)
          to label %17 unwind label %28

17:                                               ; preds = %16
  call void @_ZNSt7__cxx1112basic_stringIcSt11char_traitsIcESaIcEED1Ev(ptr noundef nonnull align 8 dereferenceable(32) %7) #12
  store i32 0, ptr %8, align 4
  %18 = invoke noundef nonnull align 8 dereferenceable(16) ptr @_ZNSirsERi(ptr noundef nonnull align 8 dereferenceable(16) %6, ptr noundef nonnull align 4 dereferenceable(4) %8)
          to label %19 unwind label %30

19:                                               ; preds = %17
  %20 = load ptr, ptr %6, align 8
  %21 = getelementptr i8, ptr %20, i64 -24
  %22 = load i64, ptr %21, align 8
  %23 = getelementptr inbounds i8, ptr %6, i64 %22
  %24 = invoke noundef zeroext i1 @_ZNKSt9basic_iosIcSt11char_traitsIcEE4failEv(ptr noundef nonnull align 8 dereferenceable(264) %23)
          to label %25 unwind label %30

25:                                               ; preds = %19
  br i1 %24, label %53, label %32

26:                                               ; preds = %15
  %27 = landingpad { ptr, i32 }
          cleanup
  br label %55

28:                                               ; preds = %16
  %29 = landingpad { ptr, i32 }
          cleanup
  call void @_ZNSt7__cxx1112basic_stringIcSt11char_traitsIcESaIcEED1Ev(ptr noundef nonnull align 8 dereferenceable(32) %7) #12
  br label %55

30:                                               ; preds = %42, %34, %32, %19, %17
  %31 = landingpad { ptr, i32 }
          cleanup
  call void @_ZNSt7__cxx1118basic_stringstreamIcSt11char_traitsIcESaIcEED1Ev(ptr noundef nonnull align 8 dereferenceable(128) %6) #12
  br label %55

32:                                               ; preds = %25
  %33 = invoke { i64, i64 } @_ZNSi5tellgEv(ptr noundef nonnull align 8 dereferenceable(16) %6)
          to label %34 unwind label %30

34:                                               ; preds = %32
  %35 = load ptr, ptr %6, align 8
  %36 = getelementptr i8, ptr %35, i64 -24
  %37 = load i64, ptr %36, align 8
  %38 = getelementptr inbounds i8, ptr %6, i64 %37
  %39 = invoke noundef zeroext i1 @_ZNKSt9basic_iosIcSt11char_traitsIcEE4failEv(ptr noundef nonnull align 8 dereferenceable(264) %38)
          to label %40 unwind label %30

40:                                               ; preds = %34
  %41 = extractvalue { i64, i64 } %33, 0
  br i1 %39, label %42, label %45

42:                                               ; preds = %40
  invoke void @_ZNKSt7__cxx1118basic_stringstreamIcSt11char_traitsIcESaIcEE3strEv(ptr dead_on_unwind nonnull writable sret(%"class.std::__cxx11::basic_string") align 8 %9, ptr noundef nonnull align 8 dereferenceable(128) %6)
          to label %43 unwind label %30

43:                                               ; preds = %42
  %44 = call noundef i64 @_ZNKSt7__cxx1112basic_stringIcSt11char_traitsIcESaIcEE6lengthEv(ptr noundef nonnull align 8 dereferenceable(32) %9) #12
  call void @_ZNSt7__cxx1112basic_stringIcSt11char_traitsIcESaIcEED1Ev(ptr noundef nonnull align 8 dereferenceable(32) %9) #12
  br label %45

45:                                               ; preds = %40, %43
  %.sroa.016.0 = phi i64 [ %44, %43 ], [ %41, %40 ]
  %46 = icmp eq i64 %.sroa.016.0, -1
  br i1 %46, label %53, label %47

47:                                               ; preds = %45
  %48 = trunc i64 %.sroa.016.0 to i32
  %49 = load i32, ptr %1, align 4
  %50 = add nsw i32 %49, %48
  store i32 %50, ptr %1, align 4
  %51 = load i32, ptr %8, align 4
  %52 = sitofp i32 %51 to double
  store double %52, ptr %2, align 8
  br label %53

53:                                               ; preds = %45, %25, %47
  %.0 = phi i32 [ 1, %47 ], [ 0, %25 ], [ 0, %45 ]
  call void @_ZNSt7__cxx1118basic_stringstreamIcSt11char_traitsIcESaIcEED1Ev(ptr noundef nonnull align 8 dereferenceable(128) %6) #12
  br label %54

54:                                               ; preds = %10, %53
  %.1 = phi i32 [ %.0, %53 ], [ 0, %10 ]
  call void @_ZNSt7__cxx1112basic_stringIcSt11char_traitsIcESaIcEED1Ev(ptr noundef nonnull align 8 dereferenceable(32) %4) #12
  ret i32 %.1

55:                                               ; preds = %30, %28, %26
  %.pn = phi { ptr, i32 } [ %31, %30 ], [ %29, %28 ], [ %27, %26 ]
  call void @_ZNSt7__cxx1112basic_stringIcSt11char_traitsIcESaIcEED1Ev(ptr noundef nonnull align 8 dereferenceable(32) %4) #12
  br label %56

56:                                               ; preds = %55, %13
  %.pn.pn = phi { ptr, i32 } [ %.pn, %55 ], [ %14, %13 ]
  resume { ptr, i32 } %.pn.pn
}